******************************************************************************
               TMS320C6x Linker PC v7.4.24                     
******************************************************************************
>> Linked Mon Dec 03 12:45:56 2018

OUTPUT FILE NAME:   <Lab5Part2.out>
ENTRY POINT SYMBOL: "_c_int00"  address: 00002ca0


MEMORY CONFIGURATION

         name            origin    length      used     unused   attr    fill
----------------------  --------  ---------  --------  --------  ----  --------
  VECS                  00000000   00000200  00000200  00000000  RWIX
  IRAM                  00000200   0002fe00  00003838  0002c5c8  RWIX
  L2RAM                 00030000   00010000  00000000  00010000  RWIX
  EMIFCE0               80000000   10000000  00000000  10000000  RWIX
  EMIFCE1               90000000   10000000  00000000  10000000  RWIX
  EMIFCE2               a0000000   10000000  00000000  10000000  RWIX
  EMIFCE3               b0000000   10000000  00000000  10000000  RWIX


SECTION ALLOCATION MAP

 output                                  attributes/
section   page    origin      length       input sections
--------  ----  ----------  ----------   ----------------
.pinit     0    00000200    00000000     UNINITIALIZED

vectors    0    00000000    00000200     
                  00000000    00000200     vectors.obj (vectors)

.bss       0    00000200    00000000     UNINITIALIZED

.data      0    00000200    00000000     UNINITIALIZED

.text      0    00000200    00002c20     
                  00000200    00000480     dsk6713bsl.lib : dsk6713.obj (.text)
                  00000680    00000480     main.obj (.text)
                  00000b00    00000340     rts6700.lib : cos.obj (.text:_cos)
                  00000e40    00000300     dsk6713bsl.lib : dsk6713_aic23_opencodec.obj (.text)
                  00001140    000002e0     rts6700.lib : sin.obj (.text:_sin)
                  00001420    00000280     cfftr2_dit.obj (.text)
                  000016a0    00000240     rts6700.lib : memcpy62.obj (.text:_memcpy)
                  000018e0    000001e0     dsk6713bsl.lib : dsk6713_led.obj (.text)
                  00001ac0    000001c0     csl6713.lib : csl_irq.obj (.text:_IRQ_map)
                  00001c80    000001a0                 : csl_mcbsp.obj (.text:_MCBSP_reset)
                  00001e20    000001a0     bitrev.obj (.text)
                  00001fc0    00000160     digitrev_index.obj (.text)
                  00002120    00000140     dsk6713bsl.lib : dsk6713_aic23_registers.obj (.text)
                  00002260    00000120     rts6700.lib : divi.obj (.text:__divi)
                  00002380    00000100     csl6713.lib : csl_mcbsp.obj (.text:_MCBSP_open)
                  00002480    00000100                 : csl_mcbsp.obj (.text:_MCBSP_start)
                  00002580    00000100     rts6700.lib : autoinit.obj (.text:__auto_init)
                  00002680    000000e0                 : round.obj (.text:__nround)
                  00002760    000000e0                 : strasg.obj (.text:__strasg)
                  00002840    000000e0                 : exit.obj (.text:_exit)
                  00002920    000000e0                 : modf.obj (.text:_modf)
                  00002a00    000000c0                 : cpy_tbl.obj (.text:_copy_in)
                  00002ac0    000000c0     dsk6713bsl.lib : dsk6713_aic23_setfreq.obj (.text)
                  00002b80    000000a0     csl6713.lib : csl_irq.obj (.text:_setMux)
                  00002c20    00000080     rts6700.lib : cpp_init.obj (.text:___TI_cpp_init)
                  00002ca0    00000080                 : boot.obj (.text:_c_int00)
                  00002d20    00000040                 : args_main.obj (.text:__args_main)
                  00002d60    00000040                 : trunc.obj (.text:__trunc)
                  00002da0    00000040     main.obj (.text:retain)
                  00002de0    00000020     rts6700.lib : exit.obj (.text:_abort)
                  00002e00    00000020     csl6713.lib : csl_irq.obj (.text)

.far       0    00002e20    00000430     UNINITIALIZED
                  00002e20    00000224     main.obj (.far)
                  00003044    000000f4     csl6713.lib : csl_irq.obj (.far)
                  00003138    00000040     rts6700.lib : cos.obj (.far)
                  00003178    00000040                 : sin.obj (.far)
                  000031b8    00000038     csl6713.lib : csl_mcbsp.obj (.far)
                  000031f0    00000028     dsk6713bsl.lib : dsk6713_aic23_registers.obj (.far)
                  00003218    00000020                    : dsk6713_aic23_setfreq.obj (.far)
                  00003238    0000000c     rts6700.lib : exit.obj (.far)
                  00003244    00000008     dsk6713bsl.lib : dsk6713_aic23_opencodec.obj (.far)
                  0000324c    00000002                    : dsk6713.obj (.far)
                  0000324e    00000002                    : dsk6713_led.obj (.far)

.stack     0    00003250    00000400     UNINITIALIZED
                  00003250    00000008     rts6700.lib : boot.obj (.stack)
                  00003258    000003f8     --HOLE--

.cinit     0    00003650    00000304     
                  00003650    0000012c     csl6713.lib : csl_irq.obj (.cinit)
                  0000377c    00000004     --HOLE-- [fill = 0]
                  00003780    0000005c     main.obj (.cinit)
                  000037dc    00000004     --HOLE-- [fill = 0]
                  000037e0    00000054     csl6713.lib : csl_mcbsp.obj (.cinit)
                  00003834    00000004     --HOLE-- [fill = 0]
                  00003838    00000048     rts6700.lib : cos.obj (.cinit)
                  00003880    00000048                 : sin.obj (.cinit)
                  000038c8    00000030     dsk6713bsl.lib : dsk6713_aic23_registers.obj (.cinit)
                  000038f8    0000002c     rts6700.lib : exit.obj (.cinit)
                  00003924    00000004     --HOLE-- [fill = 0]
                  00003928    00000028     dsk6713bsl.lib : dsk6713_aic23_setfreq.obj (.cinit)
                  00003950    00000004     --HOLE-- [fill = 0]

.const     0    00003954    000000e4     
                  00003954    00000080     main.obj (.const:_B)
                  000039d4    00000040     dsk6713bsl.lib : dsk6713_aic23_opencodec.obj (.const)
                  00003a14    00000020                    : dsk6713.obj (.const)
                  00003a34    00000004     main.obj (.const)


GLOBAL SYMBOLS: SORTED ALPHABETICALLY BY Name 

address    name
--------   ----
00000200   $bss
00000200   .bss
00000200   .data
00000200   .text
00002de0   C$$EXIT
00003954   _B
00003a34   _BL
00002fd8   _DELTA
00003244   _DSK6713_AIC23_codeccontrolhandle
00003248   _DSK6713_AIC23_codecdatahandle
000021e0   _DSK6713_AIC23_config
00000e40   _DSK6713_AIC23_openCodec
000021b8   _DSK6713_AIC23_rget
00002120   _DSK6713_AIC23_rset
00002ac0   _DSK6713_AIC23_setFreq
000018e0   _DSK6713_LED_init
00001920   _DSK6713_LED_off
00001990   _DSK6713_LED_on
00001a00   _DSK6713_LED_toggle
00000614   _DSK6713_getVersion
0000024c   _DSK6713_init
00000568   _DSK6713_rget
0000057c   _DSK6713_rset
0000324c   _DSK6713_version
00000590   _DSK6713_wait
000005e8   _DSK6713_waitusec
00001ac0   _IRQ_map
00002380   _MCBSP_open
00001c80   _MCBSP_reset
00002480   _MCBSP_start
00003130   __IRQ_dispatchTable
0000306c   __IRQ_eventTable
00002e00   __IRQ_hookFetchPacket
000030f0   __IRQ_intTable
000031e8   __MCBSP_hDev0
000031ec   __MCBSP_hDev1
00003650   __STACK_END
00000400   __STACK_SIZE
00000001   __TI_args_main
00002c20   ___TI_cpp_init
00003240   ___TI_enable_exit_profile_output
ffffffff   ___TI_pprof_out_hndl
ffffffff   ___TI_prof_data_size
ffffffff   ___TI_prof_data_start
ffffffff   ___binit__
00000200   ___bss__
ffffffff   ___c_args__
00003650   ___cinit__
00000200   ___data__
00000200   ___edata__
00000200   ___end__
00002e20   ___etext__
ffffffff   ___pinit__
00000200   ___text__
00002d20   __args_main
00002580   __auto_init
00002260   __c6xabi_divi
00003238   __cleanup_ptr
00002260   __divi
0000323c   __dtors_ptr
00002680   __nround
00003250   __stack
00002760   __strasg
00002d60   __trunc
00002de0   _abort
00001e20   _bitrev
00002ca0   _c_int00
00001420   _cfftr2_dit
00002e24   _config
00002a00   _copy_in
00000b00   _cos
00001fc0   _digitrev_index
00002840   _exit
00002e20   _hCodec
0000303c   _i
00002fdc   _iw
00002ffc   _ix
00000680   _main
000016a0   _memcpy
00002920   _modf
00003040   _n
00002da0   _serialPortRcvISR
00001140   _sin
00002e50   _w
00002ed8   _x
00002e4c   _xxx
00002ed0   _yyy
ffffffff   binit
00003650   cinit
00000200   edata
00000200   end
00002e20   etext
ffffffff   pinit


GLOBAL SYMBOLS: SORTED BY Symbol Address 

address    name
--------   ----
00000001   __TI_args_main
00000200   $bss
00000200   .bss
00000200   .data
00000200   .text
00000200   ___bss__
00000200   ___data__
00000200   ___edata__
00000200   ___end__
00000200   ___text__
00000200   edata
00000200   end
0000024c   _DSK6713_init
00000400   __STACK_SIZE
00000568   _DSK6713_rget
0000057c   _DSK6713_rset
00000590   _DSK6713_wait
000005e8   _DSK6713_waitusec
00000614   _DSK6713_getVersion
00000680   _main
00000b00   _cos
00000e40   _DSK6713_AIC23_openCodec
00001140   _sin
00001420   _cfftr2_dit
000016a0   _memcpy
000018e0   _DSK6713_LED_init
00001920   _DSK6713_LED_off
00001990   _DSK6713_LED_on
00001a00   _DSK6713_LED_toggle
00001ac0   _IRQ_map
00001c80   _MCBSP_reset
00001e20   _bitrev
00001fc0   _digitrev_index
00002120   _DSK6713_AIC23_rset
000021b8   _DSK6713_AIC23_rget
000021e0   _DSK6713_AIC23_config
00002260   __c6xabi_divi
00002260   __divi
00002380   _MCBSP_open
00002480   _MCBSP_start
00002580   __auto_init
00002680   __nround
00002760   __strasg
00002840   _exit
00002920   _modf
00002a00   _copy_in
00002ac0   _DSK6713_AIC23_setFreq
00002c20   ___TI_cpp_init
00002ca0   _c_int00
00002d20   __args_main
00002d60   __trunc
00002da0   _serialPortRcvISR
00002de0   C$$EXIT
00002de0   _abort
00002e00   __IRQ_hookFetchPacket
00002e20   ___etext__
00002e20   _hCodec
00002e20   etext
00002e24   _config
00002e4c   _xxx
00002e50   _w
00002ed0   _yyy
00002ed8   _x
00002fd8   _DELTA
00002fdc   _iw
00002ffc   _ix
0000303c   _i
00003040   _n
0000306c   __IRQ_eventTable
000030f0   __IRQ_intTable
00003130   __IRQ_dispatchTable
000031e8   __MCBSP_hDev0
000031ec   __MCBSP_hDev1
00003238   __cleanup_ptr
0000323c   __dtors_ptr
00003240   ___TI_enable_exit_profile_output
00003244   _DSK6713_AIC23_codeccontrolhandle
00003248   _DSK6713_AIC23_codecdatahandle
0000324c   _DSK6713_version
00003250   __stack
00003650   __STACK_END
00003650   ___cinit__
00003650   cinit
00003954   _B
00003a34   _BL
ffffffff   ___TI_pprof_out_hndl
ffffffff   ___TI_prof_data_size
ffffffff   ___TI_prof_data_start
ffffffff   ___binit__
ffffffff   ___c_args__
ffffffff   ___pinit__
ffffffff   binit
ffffffff   pinit

[93 symbols]
