******************************************************************************
               TMS320C6x Linker PC v7.4.24                     
******************************************************************************
>> Linked Wed Nov 28 16:49:06 2018

OUTPUT FILE NAME:   <Lab4Part2.out>
ENTRY POINT SYMBOL: "_c_int00"  address: 00001ee0


MEMORY CONFIGURATION

         name            origin    length      used     unused   attr    fill
----------------------  --------  ---------  --------  --------  ----  --------
  VECS                  00000000   00000200  00000200  00000000  RWIX
  IRAM                  00000200   0002fe00  0000275c  0002d6a4  RWIX
  L2RAM                 00030000   00010000  00000000  00010000  RWIX
  EMIFCE0               80000000   10000000  00000000  10000000  RWIX
  EMIFCE1               90000000   10000000  00000000  10000000  RWIX
  EMIFCE2               a0000000   10000000  00000000  10000000  RWIX
  EMIFCE3               b0000000   10000000  00000000  10000000  RWIX


SECTION ALLOCATION MAP

 output                                  attributes/
section   page    origin      length       input sections
--------  ----  ----------  ----------   ----------------
.pinit     0    00000200    00000000     UNINITIALIZED

vectors    0    00000000    00000200     
                  00000000    00000200     vectors.obj (vectors)

.bss       0    00000200    00000000     UNINITIALIZED

.data      0    00000200    00000000     UNINITIALIZED

.text      0    00000200    00001de0     
                  00000200    00000480     dsk6713bsl.lib : dsk6713.obj (.text)
                  00000680    00000300                    : dsk6713_aic23_opencodec.obj (.text)
                  00000980    00000240     rts6700.lib : memcpy62.obj (.text:_memcpy)
                  00000bc0    000001e0     dsk6713bsl.lib : dsk6713_led.obj (.text)
                  00000da0    000001c0     csl6713.lib : csl_irq.obj (.text:_IRQ_map)
                  00000f60    000001a0                 : csl_mcbsp.obj (.text:_MCBSP_reset)
                  00001100    00000180     main.obj (.text)
                  00001280    00000180     main.obj (.text:retain)
                  00001400    00000140     dsk6713bsl.lib : dsk6713_aic23_registers.obj (.text)
                  00001540    00000140     iir2DFII_asm.obj (.text)
                  00001680    00000100     csl6713.lib : csl_mcbsp.obj (.text:_MCBSP_open)
                  00001780    00000100                 : csl_mcbsp.obj (.text:_MCBSP_start)
                  00001880    00000100     rts6700.lib : autoinit.obj (.text:__auto_init)
                  00001980    00000100                 : remi.obj (.text:__remi)
                  00001a80    000000e0                 : strasg.obj (.text:__strasg)
                  00001b60    000000e0                 : exit.obj (.text:_exit)
                  00001c40    000000c0                 : cpy_tbl.obj (.text:_copy_in)
                  00001d00    000000c0     dsk6713bsl.lib : dsk6713_aic23_setfreq.obj (.text)
                  00001dc0    000000a0     csl6713.lib : csl_irq.obj (.text:_setMux)
                  00001e60    00000080     rts6700.lib : cpp_init.obj (.text:___TI_cpp_init)
                  00001ee0    00000080                 : boot.obj (.text:_c_int00)
                  00001f60    00000040                 : args_main.obj (.text:__args_main)
                  00001fa0    00000020                 : exit.obj (.text:_abort)
                  00001fc0    00000020     csl6713.lib : csl_irq.obj (.text)

.stack     0    00001fe0    00000400     UNINITIALIZED
                  00001fe0    00000008     rts6700.lib : boot.obj (.stack)
                  00001fe8    000003f8     --HOLE--

.cinit     0    000023e0    0000029c     
                  000023e0    0000012c     csl6713.lib : csl_irq.obj (.cinit)
                  0000250c    00000004     --HOLE-- [fill = 0]
                  00002510    00000084     main.obj (.cinit)
                  00002594    00000004     --HOLE-- [fill = 0]
                  00002598    00000054     csl6713.lib : csl_mcbsp.obj (.cinit)
                  000025ec    00000004     --HOLE-- [fill = 0]
                  000025f0    00000030     dsk6713bsl.lib : dsk6713_aic23_registers.obj (.cinit)
                  00002620    0000002c     rts6700.lib : exit.obj (.cinit)
                  0000264c    00000004     --HOLE-- [fill = 0]
                  00002650    00000028     dsk6713bsl.lib : dsk6713_aic23_setfreq.obj (.cinit)
                  00002678    00000004     --HOLE-- [fill = 0]

.far       0    0000267c    00000218     UNINITIALIZED
                  0000267c    000000f4     csl6713.lib : csl_irq.obj (.far)
                  00002770    0000008c     main.obj (.far)
                  000027fc    00000038     csl6713.lib : csl_mcbsp.obj (.far)
                  00002834    00000028     dsk6713bsl.lib : dsk6713_aic23_registers.obj (.far)
                  0000285c    00000020                    : dsk6713_aic23_setfreq.obj (.far)
                  0000287c    0000000c     rts6700.lib : exit.obj (.far)
                  00002888    00000008     dsk6713bsl.lib : dsk6713_aic23_opencodec.obj (.far)
                  00002890    00000002                    : dsk6713.obj (.far)
                  00002892    00000002                    : dsk6713_led.obj (.far)

.const     0    00002894    000000c8     
                  00002894    00000040     dsk6713bsl.lib : dsk6713_aic23_opencodec.obj (.const)
                  000028d4    0000002c     main.obj (.const:_DEN2)
                  00002900    0000002c     main.obj (.const:_NUM2)
                  0000292c    00000020     dsk6713bsl.lib : dsk6713.obj (.const)
                  0000294c    00000010     main.obj (.const)


GLOBAL SYMBOLS: SORTED ALPHABETICALLY BY Name 

address    name
--------   ----
00000200   $bss
00000200   .bss
00000200   .data
00000200   .text
00001fa0   C$$EXIT
000028d4   _DEN2
00002950   _DL
00002958   _DL2
00002888   _DSK6713_AIC23_codeccontrolhandle
0000288c   _DSK6713_AIC23_codecdatahandle
000014c0   _DSK6713_AIC23_config
00000680   _DSK6713_AIC23_openCodec
00001498   _DSK6713_AIC23_rget
00001400   _DSK6713_AIC23_rset
00001d00   _DSK6713_AIC23_setFreq
00000bc0   _DSK6713_LED_init
00000c00   _DSK6713_LED_off
00000c70   _DSK6713_LED_on
00000ce0   _DSK6713_LED_toggle
00000614   _DSK6713_getVersion
0000024c   _DSK6713_init
00000568   _DSK6713_rget
0000057c   _DSK6713_rset
00002890   _DSK6713_version
00000590   _DSK6713_wait
000005e8   _DSK6713_waitusec
00000da0   _IRQ_map
00001680   _MCBSP_open
00000f60   _MCBSP_reset
00001780   _MCBSP_start
0000294c   _NL
00002954   _NL2
00002900   _NUM2
00002768   __IRQ_dispatchTable
000026a4   __IRQ_eventTable
00001fc0   __IRQ_hookFetchPacket
00002728   __IRQ_intTable
0000282c   __MCBSP_hDev0
00002830   __MCBSP_hDev1
000023e0   __STACK_END
00000400   __STACK_SIZE
00000001   __TI_args_main
00001e60   ___TI_cpp_init
00002884   ___TI_enable_exit_profile_output
ffffffff   ___TI_pprof_out_hndl
ffffffff   ___TI_prof_data_size
ffffffff   ___TI_prof_data_start
ffffffff   ___binit__
00000200   ___bss__
ffffffff   ___c_args__
000023e0   ___cinit__
00000200   ___data__
00000200   ___edata__
00000200   ___end__
00001fe0   ___etext__
ffffffff   ___pinit__
00000200   ___text__
00001f60   __args_main
00001880   __auto_init
00001980   __c6xabi_remi
0000287c   __cleanup_ptr
00002880   __dtors_ptr
00001980   __remi
00001fe0   __stack
00001a80   __strasg
00001fa0   _abort
00001ee0   _c_int00
00002774   _config
00001c40   _copy_in
00001b60   _exit
000027cc   _filterOut
00002770   _hCodec
00001540   _iirDFII_asm
000027c8   _index
00001100   _main
00000980   _memcpy
000027d0   _rChann
00001280   _serialPortRcvISR
0000279c   _tempOmega
ffffffff   binit
000023e0   cinit
00000200   edata
00000200   end
00001fe0   etext
ffffffff   pinit


GLOBAL SYMBOLS: SORTED BY Symbol Address 

address    name
--------   ----
00000001   __TI_args_main
00000200   $bss
00000200   .bss
00000200   .data
00000200   .text
00000200   ___bss__
00000200   ___data__
00000200   ___edata__
00000200   ___end__
00000200   ___text__
00000200   edata
00000200   end
0000024c   _DSK6713_init
00000400   __STACK_SIZE
00000568   _DSK6713_rget
0000057c   _DSK6713_rset
00000590   _DSK6713_wait
000005e8   _DSK6713_waitusec
00000614   _DSK6713_getVersion
00000680   _DSK6713_AIC23_openCodec
00000980   _memcpy
00000bc0   _DSK6713_LED_init
00000c00   _DSK6713_LED_off
00000c70   _DSK6713_LED_on
00000ce0   _DSK6713_LED_toggle
00000da0   _IRQ_map
00000f60   _MCBSP_reset
00001100   _main
00001280   _serialPortRcvISR
00001400   _DSK6713_AIC23_rset
00001498   _DSK6713_AIC23_rget
000014c0   _DSK6713_AIC23_config
00001540   _iirDFII_asm
00001680   _MCBSP_open
00001780   _MCBSP_start
00001880   __auto_init
00001980   __c6xabi_remi
00001980   __remi
00001a80   __strasg
00001b60   _exit
00001c40   _copy_in
00001d00   _DSK6713_AIC23_setFreq
00001e60   ___TI_cpp_init
00001ee0   _c_int00
00001f60   __args_main
00001fa0   C$$EXIT
00001fa0   _abort
00001fc0   __IRQ_hookFetchPacket
00001fe0   ___etext__
00001fe0   __stack
00001fe0   etext
000023e0   __STACK_END
000023e0   ___cinit__
000023e0   cinit
000026a4   __IRQ_eventTable
00002728   __IRQ_intTable
00002768   __IRQ_dispatchTable
00002770   _hCodec
00002774   _config
0000279c   _tempOmega
000027c8   _index
000027cc   _filterOut
000027d0   _rChann
0000282c   __MCBSP_hDev0
00002830   __MCBSP_hDev1
0000287c   __cleanup_ptr
00002880   __dtors_ptr
00002884   ___TI_enable_exit_profile_output
00002888   _DSK6713_AIC23_codeccontrolhandle
0000288c   _DSK6713_AIC23_codecdatahandle
00002890   _DSK6713_version
000028d4   _DEN2
00002900   _NUM2
0000294c   _NL
00002950   _DL
00002954   _NL2
00002958   _DL2
ffffffff   ___TI_pprof_out_hndl
ffffffff   ___TI_prof_data_size
ffffffff   ___TI_prof_data_start
ffffffff   ___binit__
ffffffff   ___c_args__
ffffffff   ___pinit__
ffffffff   binit
ffffffff   pinit

[85 symbols]
